target datalayout = "e-m:e-p270:32:32-p271:32:32-p272:64:64-i64:64-i128:128-f80:128-n8:16:32:64-S128"
target triple = "x86_64-pc-linux-gnu"

%"class.open_spiel::phantom_go::PhantomGoBoard" = type <{ %"struct.std::array.3", [2 x i8], %"struct.std::array.5", i8, i8, [2 x i8], i32, %"struct.std::array.6", [2 x i8], %"struct.std::array.7", i64, %"struct.std::array.8", i32, i32, i16, [6 x i8] }>
%"struct.std::array.3" = type { [2 x %"struct.std::array.4"] }
%"struct.std::array.4" = type { [361 x i8] }
%"struct.std::array.5" = type { [2 x i32] }
%"struct.std::array.6" = type { [441 x %"struct.open_spiel::phantom_go::PhantomGoBoard::Vertex"] }
%"struct.open_spiel::phantom_go::PhantomGoBoard::Vertex" = type { i16, i16, i8 }
%"struct.std::array.7" = type { [441 x %"struct.open_spiel::phantom_go::PhantomGoBoard::Chain"] }
%"struct.open_spiel::phantom_go::PhantomGoBoard::Chain" = type { i32, i16, i16, i16 }
%"struct.std::array.8" = type { [4 x i16] }
%class.anon.28 = type { ptr, i8, ptr, ptr }

; Function Attrs: mustprogress nounwind uwtable
define linkonce_odr noundef nonnull align 4 dereferenceable(12) ptr @_ZNSt14__array_traitsIN10open_spiel10phantom_go14PhantomGoBoard5ChainELm441EE6_S_refERA441_KS3_m(ptr noundef nonnull align 4 dereferenceable(5292) %0, i64 noundef %1) #4 comdat align 2 {
  %3 = alloca ptr, align 8
  %4 = alloca i64, align 8
  store ptr %0, ptr %3, align 8
  store i64 %1, ptr %4, align 8
  %5 = load ptr, ptr %3, align 8
  %6 = load i64, ptr %4, align 8
  %7 = getelementptr inbounds [441 x %"struct.open_spiel::phantom_go::PhantomGoBoard::Chain"], ptr %5, i64 0, i64 %6
  ret ptr %7
}

; Function Attrs: mustprogress nounwind uwtable
define linkonce_odr noundef nonnull align 2 dereferenceable(6) ptr @_ZNSt14__array_traitsIN10open_spiel10phantom_go14PhantomGoBoard6VertexELm441EE6_S_refERA441_KS3_m(ptr noundef nonnull align 2 dereferenceable(2646) %0, i64 noundef %1) #4 comdat align 2 {
  %3 = alloca ptr, align 8
  %4 = alloca i64, align 8
  store ptr %0, ptr %3, align 8
  store i64 %1, ptr %4, align 8
  %5 = load ptr, ptr %3, align 8
  %6 = load i64, ptr %4, align 8
  %7 = getelementptr inbounds [441 x %"struct.open_spiel::phantom_go::PhantomGoBoard::Vertex"], ptr %5, i64 0, i64 %6
  ret ptr %7
}

; Function Attrs: mustprogress nounwind uwtable
define linkonce_odr noundef nonnull align 4 dereferenceable(12) ptr @_ZNSt5arrayIN10open_spiel10phantom_go14PhantomGoBoard5ChainELm441EEixEm(ptr noundef nonnull align 4 dereferenceable(5292) %0, i64 noundef %1) #4 comdat align 2 {
  %3 = alloca ptr, align 8
  %4 = alloca i64, align 8
  store ptr %0, ptr %3, align 8
  store i64 %1, ptr %4, align 8
  %5 = load ptr, ptr %3, align 8
  %6 = getelementptr inbounds nuw %"struct.std::array.7", ptr %5, i32 0, i32 0
  %7 = load i64, ptr %4, align 8
  %8 = call noundef nonnull align 4 dereferenceable(12) ptr @_ZNSt14__array_traitsIN10open_spiel10phantom_go14PhantomGoBoard5ChainELm441EE6_S_refERA441_KS3_m(ptr noundef nonnull align 4 dereferenceable(5292) %6, i64 noundef %7) #3
  ret ptr %8
}

; Function Attrs: mustprogress nounwind uwtable
define linkonce_odr noundef nonnull align 2 dereferenceable(6) ptr @_ZNKSt5arrayIN10open_spiel10phantom_go14PhantomGoBoard6VertexELm441EEixEm(ptr noundef nonnull align 2 dereferenceable(2646) %0, i64 noundef %1) #4 comdat align 2 {
  %3 = alloca ptr, align 8
  %4 = alloca i64, align 8
  store ptr %0, ptr %3, align 8
  store i64 %1, ptr %4, align 8
  %5 = load ptr, ptr %3, align 8
  %6 = getelementptr inbounds nuw %"struct.std::array.6", ptr %5, i32 0, i32 0
  %7 = load i64, ptr %4, align 8
  %8 = call noundef nonnull align 2 dereferenceable(6) ptr @_ZNSt14__array_traitsIN10open_spiel10phantom_go14PhantomGoBoard6VertexELm441EE6_S_refERA441_KS3_m(ptr noundef nonnull align 2 dereferenceable(2646) %6, i64 noundef %7) #3
  ret ptr %8
}

; Function Attrs: mustprogress nounwind uwtable
define linkonce_odr noundef zeroext i16 @_ZNK10open_spiel10phantom_go14PhantomGoBoard9ChainHeadEt(ptr noundef nonnull align 8 dereferenceable(8706) %0, i16 noundef zeroext %1) #4 comdat align 2 {
  %3 = alloca ptr, align 8
  %4 = alloca i16, align 2
  store ptr %0, ptr %3, align 8
  store i16 %1, ptr %4, align 2
  %5 = load ptr, ptr %3, align 8
  %6 = getelementptr inbounds nuw %"class.open_spiel::phantom_go::PhantomGoBoard", ptr %5, i32 0, i32 7
  %7 = load i16, ptr %4, align 2
  %8 = zext i16 %7 to i64
  %9 = call noundef nonnull align 2 dereferenceable(6) ptr @_ZNKSt5arrayIN10open_spiel10phantom_go14PhantomGoBoard6VertexELm441EEixEm(ptr noundef nonnull align 2 dereferenceable(2646) %6, i64 noundef %8) #3
  %10 = getelementptr inbounds nuw %"struct.open_spiel::phantom_go::PhantomGoBoard::Vertex", ptr %9, i32 0, i32 0
  %11 = load i16, ptr %10, align 2
  ret i16 %11
}

; Function Attrs: mustprogress uwtable
define linkonce_odr noundef nonnull align 4 dereferenceable(12) ptr @_ZN10open_spiel10phantom_go14PhantomGoBoard5chainEt(ptr noundef nonnull align 8 dereferenceable(8706) %0, i16 noundef zeroext %1) #5 comdat align 2 {
  %3 = alloca ptr, align 8
  %4 = alloca i16, align 2
  store ptr %0, ptr %3, align 8
  store i16 %1, ptr %4, align 2
  %5 = load ptr, ptr %3, align 8
  %6 = getelementptr inbounds nuw %"class.open_spiel::phantom_go::PhantomGoBoard", ptr %5, i32 0, i32 9
  %7 = load i16, ptr %4, align 2
  %8 = call noundef zeroext i16 @_ZNK10open_spiel10phantom_go14PhantomGoBoard9ChainHeadEt(ptr noundef nonnull align 8 dereferenceable(8706) %5, i16 noundef zeroext %7)
  %9 = zext i16 %8 to i64
  %10 = call noundef nonnull align 4 dereferenceable(12) ptr @_ZNSt5arrayIN10open_spiel10phantom_go14PhantomGoBoard5ChainELm441EEixEm(ptr noundef nonnull align 4 dereferenceable(5292) %6, i64 noundef %9) #3
  ret ptr %10
}

; Function Attrs: mustprogress nounwind uwtable
define linkonce_odr noundef zeroext i8 @_ZNK10open_spiel10phantom_go14PhantomGoBoard10PointColorEt(ptr noundef nonnull align 8 dereferenceable(8706) %0, i16 noundef zeroext %1) #4 comdat align 2 {
  %3 = alloca ptr, align 8
  %4 = alloca i16, align 2
  store ptr %0, ptr %3, align 8
  store i16 %1, ptr %4, align 2
  %5 = load ptr, ptr %3, align 8
  %6 = getelementptr inbounds nuw %"class.open_spiel::phantom_go::PhantomGoBoard", ptr %5, i32 0, i32 7
  %7 = load i16, ptr %4, align 2
  %8 = zext i16 %7 to i64
  %9 = call noundef nonnull align 2 dereferenceable(6) ptr @_ZNKSt5arrayIN10open_spiel10phantom_go14PhantomGoBoard6VertexELm441EEixEm(ptr noundef nonnull align 2 dereferenceable(2646) %6, i64 noundef %8) #3
  %10 = getelementptr inbounds nuw %"struct.open_spiel::phantom_go::PhantomGoBoard::Vertex", ptr %9, i32 0, i32 2
  %11 = load i8, ptr %10, align 2
  ret i8 %11
}

; Function Attrs: mustprogress nounwind uwtable
define linkonce_odr noundef nonnull align 2 dereferenceable(2) ptr @_ZNSt14__array_traitsItLm4EE6_S_refERA4_Ktm(ptr noundef nonnull align 2 dereferenceable(8) %0, i64 noundef %1) #4 comdat align 2 {
  %3 = alloca ptr, align 8
  %4 = alloca i64, align 8
  store ptr %0, ptr %3, align 8
  store i64 %1, ptr %4, align 8
  %5 = load ptr, ptr %3, align 8
  %6 = load i64, ptr %4, align 8
  %7 = getelementptr inbounds [4 x i16], ptr %5, i64 0, i64 %6
  ret ptr %7
}

; Function Attrs: mustprogress uwtable
define internal void @"_ZZN10open_spiel10phantom_go14PhantomGoBoard17CaptureDeadChainsEtNS0_7GoColorEENK3$_0clEt"(ptr noundef nonnull align 8 dereferenceable(32) %0, i16 noundef zeroext %1) #5 align 2 {
  %3 = alloca ptr, align 8
  %4 = alloca i16, align 2
  store ptr %0, ptr %3, align 8
  store i16 %1, ptr %4, align 2
  %5 = load ptr, ptr %3, align 8
  %6 = getelementptr inbounds nuw %class.anon.28, ptr %5, i32 0, i32 0
  %7 = load ptr, ptr %6, align 8
  %8 = load i16, ptr %4, align 2
  %9 = call noundef zeroext i8 @_ZNK10open_spiel10phantom_go14PhantomGoBoard10PointColorEt(ptr noundef nonnull align 8 dereferenceable(8706) %7, i16 noundef zeroext %8)
  %10 = getelementptr inbounds nuw %class.anon.28, ptr %5, i32 0, i32 1
  %11 = load i8, ptr %10, align 8
  %12 = call noundef zeroext i8 @_ZN10open_spiel10phantom_go8OppColorENS0_7GoColorE(i8 noundef zeroext %11)
  %13 = icmp eq i8 %9, %12
  br i1 %13, label %14, label %41

14:                                               ; preds = %2
  %15 = load i16, ptr %4, align 2
  %16 = call noundef nonnull align 4 dereferenceable(12) ptr @_ZN10open_spiel10phantom_go14PhantomGoBoard5chainEt(ptr noundef nonnull align 8 dereferenceable(8706) %7, i16 noundef zeroext %15)
  %17 = getelementptr inbounds nuw %"struct.open_spiel::phantom_go::PhantomGoBoard::Chain", ptr %16, i32 0, i32 3
  %18 = load i16, ptr %17, align 4
  %19 = zext i16 %18 to i32
  %20 = icmp eq i32 %19, 0
  br i1 %20, label %21, label %41

21:                                               ; preds = %14
  %22 = load i16, ptr %4, align 2
  %23 = call noundef zeroext i16 @_ZNK10open_spiel10phantom_go14PhantomGoBoard9ChainHeadEt(ptr noundef nonnull align 8 dereferenceable(8706) %7, i16 noundef zeroext %22)
  %24 = getelementptr inbounds nuw %"class.open_spiel::phantom_go::PhantomGoBoard", ptr %7, i32 0, i32 11
  %25 = getelementptr inbounds nuw %class.anon.28, ptr %5, i32 0, i32 2
  %26 = load ptr, ptr %25, align 8
  %27 = load i32, ptr %26, align 4
  %28 = add nsw i32 %27, 1
  store i32 %28, ptr %26, align 4
  %29 = sext i32 %27 to i64
  %30 = call noundef nonnull align 2 dereferenceable(2) ptr @_ZNSt5arrayItLm4EEixEm(ptr noundef nonnull align 2 dereferenceable(8) %24, i64 noundef %29) #3
  store i16 %23, ptr %30, align 2
  %31 = load i16, ptr %4, align 2
  %32 = call noundef nonnull align 4 dereferenceable(12) ptr @_ZN10open_spiel10phantom_go14PhantomGoBoard5chainEt(ptr noundef nonnull align 8 dereferenceable(8706) %7, i16 noundef zeroext %31)
  %33 = getelementptr inbounds nuw %"struct.open_spiel::phantom_go::PhantomGoBoard::Chain", ptr %32, i32 0, i32 2
  %34 = load i16, ptr %33, align 2
  %35 = zext i16 %34 to i32
  %36 = getelementptr inbounds nuw %class.anon.28, ptr %5, i32 0, i32 3
  %37 = load ptr, ptr %36, align 8
  %38 = load i32, ptr %37, align 4
  %39 = add nsw i32 %38, %35
  store i32 %39, ptr %37, align 4
  %40 = load i16, ptr %4, align 2
  call void @_ZN10open_spiel10phantom_go14PhantomGoBoard11RemoveChainEt(ptr noundef nonnull align 8 dereferenceable(8706) %7, i16 noundef zeroext %40)
  br label %41

41:                                               ; preds = %21, %14, %2
  ret void
}

; Function Attrs: mustprogress nounwind uwtable
define linkonce_odr noundef nonnull align 2 dereferenceable(2) ptr @_ZNSt5arrayItLm4EEixEm(ptr noundef nonnull align 2 dereferenceable(8) %0, i64 noundef %1) #4 comdat align 2 {
  %3 = alloca ptr, align 8
  %4 = alloca i64, align 8
  store ptr %0, ptr %3, align 8
  store i64 %1, ptr %4, align 8
  %5 = load ptr, ptr %3, align 8
  %6 = getelementptr inbounds nuw %"struct.std::array.8", ptr %5, i32 0, i32 0
  %7 = load i64, ptr %4, align 8
  %8 = call noundef nonnull align 2 dereferenceable(2) ptr @_ZNSt14__array_traitsItLm4EE6_S_refERA4_Ktm(ptr noundef nonnull align 2 dereferenceable(8) %6, i64 noundef %7) #3
  ret ptr %8
}

; Function Attrs: mustprogress nounwind willreturn memory(none) uwtable
define linkonce_odr noundef i64 @_ZNKSt5arrayItLm4EE4sizeEv(ptr noundef nonnull align 2 dereferenceable(8) %0) #9 comdat align 2 {
  %2 = alloca ptr, align 8
  store ptr %0, ptr %2, align 8
  ret i64 4
}

; Function Attrs: mustprogress uwtable
define internal void @"_ZN10open_spiel10phantom_go12_GLOBAL__N_110NeighboursIZNS0_14PhantomGoBoard17CaptureDeadChainsEtNS0_7GoColorEE3$_0EEvtRKT_"(i16 noundef zeroext %0, ptr noundef nonnull align 8 dereferenceable(32) %1) #5 {
  %3 = alloca i16, align 2
  %4 = alloca ptr, align 8
  store i16 %0, ptr %3, align 2
  store ptr %1, ptr %4, align 8
  %5 = load ptr, ptr %4, align 8
  %6 = load i16, ptr %3, align 2
  %7 = zext i16 %6 to i32
  %8 = add nsw i32 %7, 21
  %9 = trunc i32 %8 to i16
  call void @"_ZZN10open_spiel10phantom_go14PhantomGoBoard17CaptureDeadChainsEtNS0_7GoColorEENK3$_0clEt"(ptr noundef nonnull align 8 dereferenceable(32) %5, i16 noundef zeroext %9)
  %10 = load ptr, ptr %4, align 8
  %11 = load i16, ptr %3, align 2
  %12 = zext i16 %11 to i32
  %13 = add nsw i32 %12, 1
  %14 = trunc i32 %13 to i16
  call void @"_ZZN10open_spiel10phantom_go14PhantomGoBoard17CaptureDeadChainsEtNS0_7GoColorEENK3$_0clEt"(ptr noundef nonnull align 8 dereferenceable(32) %10, i16 noundef zeroext %14)
  %15 = load ptr, ptr %4, align 8
  %16 = load i16, ptr %3, align 2
  %17 = zext i16 %16 to i32
  %18 = sub nsw i32 %17, 1
  %19 = trunc i32 %18 to i16
  call void @"_ZZN10open_spiel10phantom_go14PhantomGoBoard17CaptureDeadChainsEtNS0_7GoColorEENK3$_0clEt"(ptr noundef nonnull align 8 dereferenceable(32) %15, i16 noundef zeroext %19)
  %20 = load ptr, ptr %4, align 8
  %21 = load i16, ptr %3, align 2
  %22 = zext i16 %21 to i32
  %23 = sub nsw i32 %22, 21
  %24 = trunc i32 %23 to i16
  call void @"_ZZN10open_spiel10phantom_go14PhantomGoBoard17CaptureDeadChainsEtNS0_7GoColorEENK3$_0clEt"(ptr noundef nonnull align 8 dereferenceable(32) %20, i16 noundef zeroext %24)
  ret void
}

; Function Attrs: mustprogress uwtable
define noundef i32 @_ZN10open_spiel10phantom_go14PhantomGoBoard17CaptureDeadChainsEtNS0_7GoColorE(ptr noundef nonnull align 8 dereferenceable(8706) %0, i16 noundef zeroext %1, i8 noundef zeroext %2) #5 align 2 {
  %4 = alloca ptr, align 8
  %5 = alloca i16, align 2
  %6 = alloca i8, align 1
  %7 = alloca i32, align 4
  %8 = alloca i32, align 4
  %9 = alloca %class.anon.28, align 8
  store ptr %0, ptr %4, align 8
  store i16 %1, ptr %5, align 2
  store i8 %2, ptr %6, align 1
  %10 = load ptr, ptr %4, align 8
  store i32 0, ptr %7, align 4
  store i32 0, ptr %8, align 4
  %11 = load i16, ptr %5, align 2
  %12 = getelementptr inbounds nuw %class.anon.28, ptr %9, i32 0, i32 0
  store ptr %10, ptr %12, align 8
  %13 = getelementptr inbounds nuw %class.anon.28, ptr %9, i32 0, i32 1
  %14 = load i8, ptr %6, align 1
  store i8 %14, ptr %13, align 8
  %15 = getelementptr inbounds nuw %class.anon.28, ptr %9, i32 0, i32 2
  store ptr %8, ptr %15, align 8
  %16 = getelementptr inbounds nuw %class.anon.28, ptr %9, i32 0, i32 3
  store ptr %7, ptr %16, align 8
  call void @"_ZN10open_spiel10phantom_go12_GLOBAL__N_110NeighboursIZNS0_14PhantomGoBoard17CaptureDeadChainsEtNS0_7GoColorEE3$_0EEvtRKT_"(i16 noundef zeroext %11, ptr noundef nonnull align 8 dereferenceable(32) %9)
  br label %17

17:                                               ; preds = %28, %3
  %18 = load i32, ptr %8, align 4
  %19 = sext i32 %18 to i64
  %20 = getelementptr inbounds nuw %"class.open_spiel::phantom_go::PhantomGoBoard", ptr %10, i32 0, i32 11
  %21 = call noundef i64 @_ZNKSt5arrayItLm4EE4sizeEv(ptr noundef nonnull align 2 dereferenceable(8) %20) #15
  %22 = icmp ult i64 %19, %21
  br i1 %22, label %23, label %31

23:                                               ; preds = %17
  %24 = getelementptr inbounds nuw %"class.open_spiel::phantom_go::PhantomGoBoard", ptr %10, i32 0, i32 11
  %25 = load i32, ptr %8, align 4
  %26 = sext i32 %25 to i64
  %27 = call noundef nonnull align 2 dereferenceable(2) ptr @_ZNSt5arrayItLm4EEixEm(ptr noundef nonnull align 2 dereferenceable(8) %24, i64 noundef %26) #3
  store i16 0, ptr %27, align 2
  br label %28

28:                                               ; preds = %23
  %29 = load i32, ptr %8, align 4
  %30 = add nsw i32 %29, 1
  store i32 %30, ptr %8, align 4
  br label %17, !llvm.loop !11

31:                                               ; preds = %17
  %32 = load i32, ptr %7, align 4
  ret i32 %32
}