; Function Attrs: mustprogress uwtable
define noundef i32 @_ZN10open_spiel10phantom_go14PhantomGoBoard17CaptureDeadChainsEtNS0_7GoColorE(ptr nocapture noundef nonnull align 8 dereferenceable(8706) %0, i16 noundef zeroext %1, i8 noundef zeroext %2) local_unnamed_addr #8 align 2 {
  %4 = add i16 %1, 21
  %5 = getelementptr inbounds nuw i8, ptr %0, i64 740
  %6 = zext i16 %4 to i64
  %7 = getelementptr inbounds [441 x %"struct.open_spiel::phantom_go::PhantomGoBoard::Vertex"], ptr %5, i64 0, i64 %6, i32 2
  %8 = load i8, ptr %7, align 2
  %9 = tail call noundef zeroext i8 @_ZN10open_spiel10phantom_go8OppColorENS0_7GoColorE(i8 noundef zeroext %2)
  %10 = icmp eq i8 %8, %9
  br i1 %10, label %11, label %"_ZZN10open_spiel10phantom_go14PhantomGoBoard17CaptureDeadChainsEtNS0_7GoColorEENK3$_0clEt.exit.i"

11:                                               ; preds = %3
  %12 = getelementptr inbounds nuw i8, ptr %0, i64 3388
  %13 = getelementptr inbounds [441 x %"struct.open_spiel::phantom_go::PhantomGoBoard::Vertex"], ptr %5, i64 0, i64 %6
  %14 = load i16, ptr %13, align 2
  %15 = zext i16 %14 to i64
  %16 = getelementptr inbounds [441 x %"struct.open_spiel::phantom_go::PhantomGoBoard::Chain"], ptr %12, i64 0, i64 %15, i32 3
  %17 = load i16, ptr %16, align 4
  %18 = icmp eq i16 %17, 0
  br i1 %18, label %19, label %"_ZZN10open_spiel10phantom_go14PhantomGoBoard17CaptureDeadChainsEtNS0_7GoColorEENK3$_0clEt.exit.i"

19:                                               ; preds = %11
  %20 = getelementptr inbounds nuw i8, ptr %0, i64 8688
  store i16 %14, ptr %20, align 8
  %21 = getelementptr inbounds [441 x %"struct.open_spiel::phantom_go::PhantomGoBoard::Chain"], ptr %12, i64 0, i64 %15, i32 2
  %22 = load i16, ptr %21, align 2
  %23 = zext i16 %22 to i32
  tail call void @_ZN10open_spiel10phantom_go14PhantomGoBoard11RemoveChainEt(ptr noundef nonnull align 8 dereferenceable(8706) %0, i16 noundef zeroext %4)
  br label %"_ZZN10open_spiel10phantom_go14PhantomGoBoard17CaptureDeadChainsEtNS0_7GoColorEENK3$_0clEt.exit.i"

"_ZZN10open_spiel10phantom_go14PhantomGoBoard17CaptureDeadChainsEtNS0_7GoColorEENK3$_0clEt.exit.i": ; preds = %19, %11, %3
  %.125 = phi i32 [ 1, %19 ], [ 0, %11 ], [ 0, %3 ]
  %.0 = phi i32 [ %23, %19 ], [ 0, %11 ], [ 0, %3 ]
  %24 = add i16 %1, 1
  %25 = zext i16 %24 to i64
  %26 = getelementptr inbounds [441 x %"struct.open_spiel::phantom_go::PhantomGoBoard::Vertex"], ptr %5, i64 0, i64 %25, i32 2
  %27 = load i8, ptr %26, align 2
  %28 = tail call noundef zeroext i8 @_ZN10open_spiel10phantom_go8OppColorENS0_7GoColorE(i8 noundef zeroext %2)
  %29 = icmp eq i8 %27, %28
  br i1 %29, label %30, label %"_ZZN10open_spiel10phantom_go14PhantomGoBoard17CaptureDeadChainsEtNS0_7GoColorEENK3$_0clEt.exit7.i"

30:                                               ; preds = %"_ZZN10open_spiel10phantom_go14PhantomGoBoard17CaptureDeadChainsEtNS0_7GoColorEENK3$_0clEt.exit.i"
  %31 = getelementptr inbounds nuw i8, ptr %0, i64 3388
  %32 = getelementptr inbounds [441 x %"struct.open_spiel::phantom_go::PhantomGoBoard::Vertex"], ptr %5, i64 0, i64 %25
  %33 = load i16, ptr %32, align 2
  %34 = zext i16 %33 to i64
  %35 = getelementptr inbounds [441 x %"struct.open_spiel::phantom_go::PhantomGoBoard::Chain"], ptr %31, i64 0, i64 %34, i32 3
  %36 = load i16, ptr %35, align 4
  %37 = icmp eq i16 %36, 0
  br i1 %37, label %38, label %"_ZZN10open_spiel10phantom_go14PhantomGoBoard17CaptureDeadChainsEtNS0_7GoColorEENK3$_0clEt.exit7.i"

38:                                               ; preds = %30
  %39 = getelementptr inbounds nuw i8, ptr %0, i64 8688
  %40 = add nuw nsw i32 %.125, 1
  %41 = zext nneg i32 %.125 to i64
  %42 = getelementptr inbounds [4 x i16], ptr %39, i64 0, i64 %41
  store i16 %33, ptr %42, align 2
  %43 = load i16, ptr %32, align 2
  %44 = zext i16 %43 to i64
  %45 = getelementptr inbounds [441 x %"struct.open_spiel::phantom_go::PhantomGoBoard::Chain"], ptr %31, i64 0, i64 %44, i32 2
  %46 = load i16, ptr %45, align 2
  %47 = zext i16 %46 to i32
  %48 = add nuw nsw i32 %.0, %47
  tail call void @_ZN10open_spiel10phantom_go14PhantomGoBoard11RemoveChainEt(ptr noundef nonnull align 8 dereferenceable(8706) %0, i16 noundef zeroext %24)
  br label %"_ZZN10open_spiel10phantom_go14PhantomGoBoard17CaptureDeadChainsEtNS0_7GoColorEENK3$_0clEt.exit7.i"

"_ZZN10open_spiel10phantom_go14PhantomGoBoard17CaptureDeadChainsEtNS0_7GoColorEENK3$_0clEt.exit7.i": ; preds = %38, %30, %"_ZZN10open_spiel10phantom_go14PhantomGoBoard17CaptureDeadChainsEtNS0_7GoColorEENK3$_0clEt.exit.i"
  %.226 = phi i32 [ %40, %38 ], [ %.125, %30 ], [ %.125, %"_ZZN10open_spiel10phantom_go14PhantomGoBoard17CaptureDeadChainsEtNS0_7GoColorEENK3$_0clEt.exit.i" ]
  %.1 = phi i32 [ %48, %38 ], [ %.0, %30 ], [ %.0, %"_ZZN10open_spiel10phantom_go14PhantomGoBoard17CaptureDeadChainsEtNS0_7GoColorEENK3$_0clEt.exit.i" ]
  %49 = add i16 %1, -1
  %50 = zext i16 %49 to i64
  %51 = getelementptr inbounds [441 x %"struct.open_spiel::phantom_go::PhantomGoBoard::Vertex"], ptr %5, i64 0, i64 %50, i32 2
  %52 = load i8, ptr %51, align 2
  %53 = tail call noundef zeroext i8 @_ZN10open_spiel10phantom_go8OppColorENS0_7GoColorE(i8 noundef zeroext %2)
  %54 = icmp eq i8 %52, %53
  br i1 %54, label %55, label %"_ZZN10open_spiel10phantom_go14PhantomGoBoard17CaptureDeadChainsEtNS0_7GoColorEENK3$_0clEt.exit8.i"

55:                                               ; preds = %"_ZZN10open_spiel10phantom_go14PhantomGoBoard17CaptureDeadChainsEtNS0_7GoColorEENK3$_0clEt.exit7.i"
  %56 = getelementptr inbounds nuw i8, ptr %0, i64 3388
  %57 = getelementptr inbounds [441 x %"struct.open_spiel::phantom_go::PhantomGoBoard::Vertex"], ptr %5, i64 0, i64 %50
  %58 = load i16, ptr %57, align 2
  %59 = zext i16 %58 to i64
  %60 = getelementptr inbounds [441 x %"struct.open_spiel::phantom_go::PhantomGoBoard::Chain"], ptr %56, i64 0, i64 %59, i32 3
  %61 = load i16, ptr %60, align 4
  %62 = icmp eq i16 %61, 0
  br i1 %62, label %63, label %"_ZZN10open_spiel10phantom_go14PhantomGoBoard17CaptureDeadChainsEtNS0_7GoColorEENK3$_0clEt.exit8.i"

63:                                               ; preds = %55
  %64 = getelementptr inbounds nuw i8, ptr %0, i64 8688
  %65 = add nuw nsw i32 %.226, 1
  %66 = zext nneg i32 %.226 to i64
  %67 = getelementptr inbounds [4 x i16], ptr %64, i64 0, i64 %66
  store i16 %58, ptr %67, align 2
  %68 = load i16, ptr %57, align 2
  %69 = zext i16 %68 to i64
  %70 = getelementptr inbounds [441 x %"struct.open_spiel::phantom_go::PhantomGoBoard::Chain"], ptr %56, i64 0, i64 %69, i32 2
  %71 = load i16, ptr %70, align 2
  %72 = zext i16 %71 to i32
  %73 = add nuw nsw i32 %.1, %72
  tail call void @_ZN10open_spiel10phantom_go14PhantomGoBoard11RemoveChainEt(ptr noundef nonnull align 8 dereferenceable(8706) %0, i16 noundef zeroext %49)
  br label %"_ZZN10open_spiel10phantom_go14PhantomGoBoard17CaptureDeadChainsEtNS0_7GoColorEENK3$_0clEt.exit8.i"

"_ZZN10open_spiel10phantom_go14PhantomGoBoard17CaptureDeadChainsEtNS0_7GoColorEENK3$_0clEt.exit8.i": ; preds = %63, %55, %"_ZZN10open_spiel10phantom_go14PhantomGoBoard17CaptureDeadChainsEtNS0_7GoColorEENK3$_0clEt.exit7.i"
  %.327 = phi i32 [ %65, %63 ], [ %.226, %55 ], [ %.226, %"_ZZN10open_spiel10phantom_go14PhantomGoBoard17CaptureDeadChainsEtNS0_7GoColorEENK3$_0clEt.exit7.i" ]
  %.2 = phi i32 [ %73, %63 ], [ %.1, %55 ], [ %.1, %"_ZZN10open_spiel10phantom_go14PhantomGoBoard17CaptureDeadChainsEtNS0_7GoColorEENK3$_0clEt.exit7.i" ]
  %74 = add i16 %1, -21
  %75 = zext i16 %74 to i64
  %76 = getelementptr inbounds [441 x %"struct.open_spiel::phantom_go::PhantomGoBoard::Vertex"], ptr %5, i64 0, i64 %75, i32 2
  %77 = load i8, ptr %76, align 2
  %78 = tail call noundef zeroext i8 @_ZN10open_spiel10phantom_go8OppColorENS0_7GoColorE(i8 noundef zeroext %2)
  %79 = icmp eq i8 %77, %78
  br i1 %79, label %80, label %.lr.ph

80:                                               ; preds = %"_ZZN10open_spiel10phantom_go14PhantomGoBoard17CaptureDeadChainsEtNS0_7GoColorEENK3$_0clEt.exit8.i"
  %81 = getelementptr inbounds nuw i8, ptr %0, i64 3388
  %82 = getelementptr inbounds [441 x %"struct.open_spiel::phantom_go::PhantomGoBoard::Vertex"], ptr %5, i64 0, i64 %75
  %83 = load i16, ptr %82, align 2
  %84 = zext i16 %83 to i64
  %85 = getelementptr inbounds [441 x %"struct.open_spiel::phantom_go::PhantomGoBoard::Chain"], ptr %81, i64 0, i64 %84, i32 3
  %86 = load i16, ptr %85, align 4
  %87 = icmp eq i16 %86, 0
  br i1 %87, label %"_ZN10open_spiel10phantom_go12_GLOBAL__N_110NeighboursIZNS0_14PhantomGoBoard17CaptureDeadChainsEtNS0_7GoColorEE3$_0EEvtRKT_.exit", label %.lr.ph

"_ZN10open_spiel10phantom_go12_GLOBAL__N_110NeighboursIZNS0_14PhantomGoBoard17CaptureDeadChainsEtNS0_7GoColorEE3$_0EEvtRKT_.exit": ; preds = %80
  %88 = getelementptr inbounds nuw i8, ptr %0, i64 8688
  %89 = add nuw nsw i32 %.327, 1
  %90 = zext nneg i32 %.327 to i64
  %91 = getelementptr inbounds [4 x i16], ptr %88, i64 0, i64 %90
  store i16 %83, ptr %91, align 2
  %92 = load i16, ptr %82, align 2
  %93 = zext i16 %92 to i64
  %94 = getelementptr inbounds [441 x %"struct.open_spiel::phantom_go::PhantomGoBoard::Chain"], ptr %81, i64 0, i64 %93, i32 2
  %95 = load i16, ptr %94, align 2
  %96 = zext i16 %95 to i32
  %97 = add nuw nsw i32 %.2, %96
  tail call void @_ZN10open_spiel10phantom_go14PhantomGoBoard11RemoveChainEt(ptr noundef nonnull align 8 dereferenceable(8706) %0, i16 noundef zeroext %74)
  %98 = icmp ult i32 %.327, 3
  br i1 %98, label %.lr.ph, label %._crit_edge

.lr.ph:                                           ; preds = %"_ZZN10open_spiel10phantom_go14PhantomGoBoard17CaptureDeadChainsEtNS0_7GoColorEENK3$_0clEt.exit8.i", %80, %"_ZN10open_spiel10phantom_go12_GLOBAL__N_110NeighboursIZNS0_14PhantomGoBoard17CaptureDeadChainsEtNS0_7GoColorEE3$_0EEvtRKT_.exit"
  %.334 = phi i32 [ %97, %"_ZN10open_spiel10phantom_go12_GLOBAL__N_110NeighboursIZNS0_14PhantomGoBoard17CaptureDeadChainsEtNS0_7GoColorEE3$_0EEvtRKT_.exit" ], [ %.2, %80 ], [ %.2, %"_ZZN10open_spiel10phantom_go14PhantomGoBoard17CaptureDeadChainsEtNS0_7GoColorEENK3$_0clEt.exit8.i" ]
  %.432 = phi i32 [ %89, %"_ZN10open_spiel10phantom_go12_GLOBAL__N_110NeighboursIZNS0_14PhantomGoBoard17CaptureDeadChainsEtNS0_7GoColorEE3$_0EEvtRKT_.exit" ], [ %.327, %80 ], [ %.327, %"_ZZN10open_spiel10phantom_go14PhantomGoBoard17CaptureDeadChainsEtNS0_7GoColorEENK3$_0clEt.exit8.i" ]
  %99 = shl nuw nsw i32 %.432, 1
  %100 = or disjoint i32 %99, 8688
  %101 = zext nneg i32 %100 to i64
  %scevgep = getelementptr i8, ptr %0, i64 %101
  %102 = shl nuw nsw i32 %.432, 1
  %narrow = sub nuw nsw i32 8, %102
  %103 = zext nneg i32 %narrow to i64
  tail call void @llvm.memset.p0.i64(ptr align 2 %scevgep, i8 0, i64 %103, i1 false)
  br label %._crit_edge

._crit_edge:                                      ; preds = %.lr.ph, %"_ZN10open_spiel10phantom_go12_GLOBAL__N_110NeighboursIZNS0_14PhantomGoBoard17CaptureDeadChainsEtNS0_7GoColorEE3$_0EEvtRKT_.exit"
  %.333 = phi i32 [ %.334, %.lr.ph ], [ %97, %"_ZN10open_spiel10phantom_go12_GLOBAL__N_110NeighboursIZNS0_14PhantomGoBoard17CaptureDeadChainsEtNS0_7GoColorEE3$_0EEvtRKT_.exit" ]
  ret i32 %.333
}